target datalayout = "e-m:e-p270:32:32-p271:32:32-p272:64:64-i64:64-i128:128-f80:128-n8:16:32:64-S128"
target triple = "x86_64-pc-linux-gnu"

@ff_mpa_enwindow = external hidden constant [257 x i32], align 16

; Function Attrs: cold nounwind optsize uwtable
define internal void @mpa_synth_init(ptr noundef %0) #5 {
  %2 = alloca ptr, align 8
  %3 = alloca i32, align 4
  %4 = alloca i32, align 4
  %5 = alloca float, align 4
  store ptr %0, ptr %2, align 8, !tbaa !4
  call void @llvm.lifetime.start.p0(i64 4, ptr %3) #7
  call void @llvm.lifetime.start.p0(i64 4, ptr %4) #7
  store i32 0, ptr %3, align 4, !tbaa !13
  br label %6

6:                                                ; preds = %41, %1
  %7 = load i32, ptr %3, align 4, !tbaa !13
  %8 = icmp slt i32 %7, 257
  br i1 %8, label %9, label %44

9:                                                ; preds = %6
  call void @llvm.lifetime.start.p0(i64 4, ptr %5) #7
  %10 = load i32, ptr %3, align 4, !tbaa !13
  %11 = sext i32 %10 to i64
  %12 = getelementptr inbounds [257 x i32], ptr @ff_mpa_enwindow, i64 0, i64 %11
  %13 = load i32, ptr %12, align 4, !tbaa !13
  %14 = sitofp i32 %13 to float
  store float %14, ptr %5, align 4, !tbaa !15
  %15 = load float, ptr %5, align 4, !tbaa !15
  %16 = fpext nsz float %15 to double
  %17 = fmul nsz double %16, 0x3D80000000000000
  %18 = fptrunc nsz double %17 to float
  store float %18, ptr %5, align 4, !tbaa !15
  %19 = load float, ptr %5, align 4, !tbaa !15
  %20 = load ptr, ptr %2, align 8, !tbaa !4
  %21 = load i32, ptr %3, align 4, !tbaa !13
  %22 = sext i32 %21 to i64
  %23 = getelementptr inbounds float, ptr %20, i64 %22
  store float %19, ptr %23, align 4, !tbaa !15
  %24 = load i32, ptr %3, align 4, !tbaa !13
  %25 = and i32 %24, 63
  %26 = icmp ne i32 %25, 0
  br i1 %26, label %27, label %30

27:                                               ; preds = %9
  %28 = load float, ptr %5, align 4, !tbaa !15
  %29 = fneg nsz float %28
  store float %29, ptr %5, align 4, !tbaa !15
  br label %30

30:                                               ; preds = %27, %9
  %31 = load i32, ptr %3, align 4, !tbaa !13
  %32 = icmp ne i32 %31, 0
  br i1 %32, label %33, label %40

33:                                               ; preds = %30
  %34 = load float, ptr %5, align 4, !tbaa !15
  %35 = load ptr, ptr %2, align 8, !tbaa !4
  %36 = load i32, ptr %3, align 4, !tbaa !13
  %37 = sub nsw i32 512, %36
  %38 = sext i32 %37 to i64
  %39 = getelementptr inbounds float, ptr %35, i64 %38
  store float %34, ptr %39, align 4, !tbaa !15
  br label %40

40:                                               ; preds = %33, %30
  call void @llvm.lifetime.end.p0(i64 4, ptr %5) #7
  br label %41

41:                                               ; preds = %40
  %42 = load i32, ptr %3, align 4, !tbaa !13
  %43 = add nsw i32 %42, 1
  store i32 %43, ptr %3, align 4, !tbaa !13
  br label %6, !llvm.loop !29

44:                                               ; preds = %6
  store i32 0, ptr %3, align 4, !tbaa !13
  br label %45

45:                                               ; preds = %74, %44
  %46 = load i32, ptr %3, align 4, !tbaa !13
  %47 = icmp slt i32 %46, 8
  br i1 %47, label %48, label %77

48:                                               ; preds = %45
  store i32 0, ptr %4, align 4, !tbaa !13
  br label %49

49:                                               ; preds = %70, %48
  %50 = load i32, ptr %4, align 4, !tbaa !13
  %51 = icmp slt i32 %50, 16
  br i1 %51, label %52, label %73

52:                                               ; preds = %49
  %53 = load ptr, ptr %2, align 8, !tbaa !4
  %54 = load i32, ptr %3, align 4, !tbaa !13
  %55 = mul nsw i32 64, %54
  %56 = add nsw i32 %55, 32
  %57 = load i32, ptr %4, align 4, !tbaa !13
  %58 = sub nsw i32 %56, %57
  %59 = sext i32 %58 to i64
  %60 = getelementptr inbounds float, ptr %53, i64 %59
  %61 = load float, ptr %60, align 4, !tbaa !15
  %62 = load ptr, ptr %2, align 8, !tbaa !4
  %63 = load i32, ptr %3, align 4, !tbaa !13
  %64 = mul nsw i32 16, %63
  %65 = add nsw i32 512, %64
  %66 = load i32, ptr %4, align 4, !tbaa !13
  %67 = add nsw i32 %65, %66
  %68 = sext i32 %67 to i64
  %69 = getelementptr inbounds float, ptr %62, i64 %68
  store float %61, ptr %69, align 4, !tbaa !15
  br label %70

70:                                               ; preds = %52
  %71 = load i32, ptr %4, align 4, !tbaa !13
  %72 = add nsw i32 %71, 1
  store i32 %72, ptr %4, align 4, !tbaa !13
  br label %49, !llvm.loop !30

73:                                               ; preds = %49
  br label %74

74:                                               ; preds = %73
  %75 = load i32, ptr %3, align 4, !tbaa !13
  %76 = add nsw i32 %75, 1
  store i32 %76, ptr %3, align 4, !tbaa !13
  br label %45, !llvm.loop !31

77:                                               ; preds = %45
  store i32 0, ptr %3, align 4, !tbaa !13
  br label %78

78:                                               ; preds = %107, %77
  %79 = load i32, ptr %3, align 4, !tbaa !13
  %80 = icmp slt i32 %79, 8
  br i1 %80, label %81, label %110

81:                                               ; preds = %78
  store i32 0, ptr %4, align 4, !tbaa !13
  br label %82

82:                                               ; preds = %103, %81
  %83 = load i32, ptr %4, align 4, !tbaa !13
  %84 = icmp slt i32 %83, 16
  br i1 %84, label %85, label %106

85:                                               ; preds = %82
  %86 = load ptr, ptr %2, align 8, !tbaa !4
  %87 = load i32, ptr %3, align 4, !tbaa !13
  %88 = mul nsw i32 64, %87
  %89 = add nsw i32 %88, 48
  %90 = load i32, ptr %4, align 4, !tbaa !13
  %91 = sub nsw i32 %89, %90
  %92 = sext i32 %91 to i64
  %93 = getelementptr inbounds float, ptr %86, i64 %92
  %94 = load float, ptr %93, align 4, !tbaa !15
  %95 = load ptr, ptr %2, align 8, !tbaa !4
  %96 = load i32, ptr %3, align 4, !tbaa !13
  %97 = mul nsw i32 16, %96
  %98 = add nsw i32 640, %97
  %99 = load i32, ptr %4, align 4, !tbaa !13
  %100 = add nsw i32 %98, %99
  %101 = sext i32 %100 to i64
  %102 = getelementptr inbounds float, ptr %95, i64 %101
  store float %94, ptr %102, align 4, !tbaa !15
  br label %103

103:                                              ; preds = %85
  %104 = load i32, ptr %4, align 4, !tbaa !13
  %105 = add nsw i32 %104, 1
  store i32 %105, ptr %4, align 4, !tbaa !13
  br label %82, !llvm.loop !32

106:                                              ; preds = %82
  br label %107

107:                                              ; preds = %106
  %108 = load i32, ptr %3, align 4, !tbaa !13
  %109 = add nsw i32 %108, 1
  store i32 %109, ptr %3, align 4, !tbaa !13
  br label %78, !llvm.loop !33

110:                                              ; preds = %78
  call void @llvm.lifetime.end.p0(i64 4, ptr %4) #7
  call void @llvm.lifetime.end.p0(i64 4, ptr %3) #7
  ret void
}