; Function Attrs: cold nofree norecurse nosync nounwind optsize memory(readwrite, argmem: none, inaccessiblemem: none) uwtable
define internal fastcc void @mpa_synth_init() unnamed_addr #9 {
  br label %1

1:                                                ; preds = %0, %12
  %indvars.iv = phi i64 [ 0, %0 ], [ %indvars.iv.next, %12 ]
  %2 = getelementptr inbounds nuw [257 x i32], ptr @ff_mpa_enwindow, i64 0, i64 %indvars.iv
  %3 = load i32, ptr %2, align 4, !tbaa !4
  %4 = sitofp i32 %3 to float
  %5 = fmul nsz float %4, 0x3D80000000000000
  %6 = getelementptr inbounds nuw float, ptr @ff_mpa_synth_window_float, i64 %indvars.iv
  store float %5, ptr %6, align 4, !tbaa !8
  %.not35 = icmp eq i64 %indvars.iv, 0
  br i1 %.not35, label %12, label %7

7:                                                ; preds = %1
  %8 = and i64 %indvars.iv, 63
  %.not = icmp eq i64 %8, 0
  %9 = fneg nsz float %5
  %.0 = select nsz i1 %.not, float %5, float %9
  %10 = sub nuw nsw i64 512, %indvars.iv
  %11 = getelementptr inbounds nuw float, ptr @ff_mpa_synth_window_float, i64 %10
  store float %.0, ptr %11, align 4, !tbaa !8
  br label %12

12:                                               ; preds = %7, %1
  %indvars.iv.next = add nuw nsw i64 %indvars.iv, 1
  %exitcond.not = icmp eq i64 %indvars.iv.next, 257
  br i1 %exitcond.not, label %.preheader2, label %1, !llvm.loop !21

.preheader2:                                      ; preds = %12, %19
  %indvars.iv15 = phi i64 [ %indvars.iv.next16, %19 ], [ 0, %12 ]
  %13 = shl nuw nsw i64 %indvars.iv15, 6
  %14 = or disjoint i64 %13, 32
  %gep.idx = shl nuw nsw i64 %indvars.iv15, 6
  %invariant.gep = getelementptr inbounds nuw i8, ptr getelementptr inbounds nuw (i8, ptr @ff_mpa_synth_window_float, i64 2048), i64 %gep.idx
  br label %15

15:                                               ; preds = %.preheader2, %15
  %indvars.iv11 = phi i64 [ 0, %.preheader2 ], [ %indvars.iv.next12, %15 ]
  %16 = sub nuw nsw i64 %14, %indvars.iv11
  %17 = getelementptr inbounds nuw float, ptr @ff_mpa_synth_window_float, i64 %16
  %18 = load float, ptr %17, align 4, !tbaa !8
  %gep27 = getelementptr inbounds nuw float, ptr %invariant.gep, i64 %indvars.iv11
  store float %18, ptr %gep27, align 4, !tbaa !8
  %indvars.iv.next12 = add nuw nsw i64 %indvars.iv11, 1
  %exitcond14.not = icmp eq i64 %indvars.iv.next12, 16
  br i1 %exitcond14.not, label %19, label %15, !llvm.loop !22

19:                                               ; preds = %15
  %indvars.iv.next16 = add nuw nsw i64 %indvars.iv15, 1
  %exitcond18.not = icmp eq i64 %indvars.iv.next16, 8
  br i1 %exitcond18.not, label %.preheader, label %.preheader2, !llvm.loop !23

.preheader:                                       ; preds = %19, %26
  %indvars.iv23 = phi i64 [ %indvars.iv.next24, %26 ], [ 0, %19 ]
  %20 = shl nuw nsw i64 %indvars.iv23, 6
  %21 = or disjoint i64 %20, 48
  %gep7.idx = shl nuw nsw i64 %indvars.iv23, 6
  %invariant.gep28 = getelementptr inbounds nuw i8, ptr getelementptr inbounds nuw (i8, ptr @ff_mpa_synth_window_float, i64 2560), i64 %gep7.idx
  br label %22

22:                                               ; preds = %.preheader, %22
  %indvars.iv19 = phi i64 [ 0, %.preheader ], [ %indvars.iv.next20, %22 ]
  %23 = sub nuw nsw i64 %21, %indvars.iv19
  %24 = getelementptr inbounds nuw float, ptr @ff_mpa_synth_window_float, i64 %23
  %25 = load float, ptr %24, align 4, !tbaa !8
  %gep = getelementptr inbounds nuw float, ptr %invariant.gep28, i64 %indvars.iv19
  store float %25, ptr %gep, align 4, !tbaa !8
  %indvars.iv.next20 = add nuw nsw i64 %indvars.iv19, 1
  %exitcond22.not = icmp eq i64 %indvars.iv.next20, 16
  br i1 %exitcond22.not, label %26, label %22, !llvm.loop !24

26:                                               ; preds = %22
  %indvars.iv.next24 = add nuw nsw i64 %indvars.iv23, 1
  %exitcond26.not = icmp eq i64 %indvars.iv.next24, 8
  br i1 %exitcond26.not, label %27, label %.preheader, !llvm.loop !25

27:                                               ; preds = %26
  ret void
}